(dp0
crdflib.term
URIRef
p1
(Vhttp://swrc.ontoware.org/ontology#month
p2
tp3
Rp4
I11
sg1
(Vhttp://swrc.ontoware.org/ontology#pages
p5
tp6
Rp7
I13
sg1
(Vhttp://swrc.ontoware.org/ontology#phone
p8
tp9
Rp10
I20
sg1
(Vhttp://www.w3.org/1999/02/22-rdf-syntax-ns#type
p11
tp12
Rp13
I1
sg1
(Vhttp://swrc.ontoware.org/ontology#financedBy
p14
tp15
Rp16
I36
sg1
(Vhttp://swrc.ontoware.org/ontology#address
p17
tp18
Rp19
I22
sg1
(Vhttp://swrc.ontoware.org/ontology#note
p20
tp21
Rp22
I32
sg1
(Vhttp://www.w3.org/2002/07/owl#inverseOf
p23
tp24
Rp25
I42
sg1
(Vhttp://swrc.ontoware.org/ontology#projectInfo
p26
tp27
Rp28
I8
sg1
(Vhttp://swrc.ontoware.org/ontology#editor
p29
tp30
Rp31
I25
sg1
(Vhttp://swrc.ontoware.org/ontology#publication
p32
tp33
Rp34
I0
sg1
(Vhttp://www.w3.org/2002/07/owl#allValuesFrom
p35
tp36
Rp37
I28
sg1
(Vhttp://swrc.ontoware.org/ontology#edition
p38
tp39
Rp40
I41
sg1
(Vhttp://swrc.ontoware.org/ontology#isWorkedOnBy
p41
tp42
Rp43
I12
sg1
(Vhttp://swrc.ontoware.org/ontology#number
p44
tp45
Rp46
I30
sg1
(Vhttp://www.w3.org/2000/01/rdf-schema#range
p47
tp48
Rp49
I44
sg1
(Vhttp://swrc.ontoware.org/ontology#dealtWithIn
p50
tp51
Rp52
I15
sg1
(Vhttp://swrc.ontoware.org/ontology#worksAtProject
p53
tp54
Rp55
I23
sg1
(Vhttp://swrc.ontoware.org/ontology#carriedOutBy
p56
tp57
Rp58
I33
sg1
(Vhttp://www.w3.org/2002/07/owl#onProperty
p59
tp60
Rp61
I27
sg1
(Vhttp://swrc.ontoware.org/ontology#type
p62
tp63
Rp64
I37
sg1
(Vhttp://swrc.ontoware.org/ontology#author
p65
tp66
Rp67
I2
sg1
(Vhttp://swrc.ontoware.org/ontology#abstract
p68
tp69
Rp70
I14
sg1
(Vhttp://swrc.ontoware.org/ontology#photo
p71
tp72
Rp73
I29
sg1
(Vhttp://swrc.ontoware.org/ontology#chapter
p74
tp75
Rp76
I40
sg1
(Vhttp://swrc.ontoware.org/ontology#howpublished
p77
tp78
Rp79
I38
sg1
(Vhttp://swrc.ontoware.org/ontology#volume
p80
tp81
Rp82
I17
sg1
(Vhttp://swrc.ontoware.org/ontology#year
p83
tp84
Rp85
I5
sg1
(Vhttp://swrc.ontoware.org/ontology#publishes
p86
tp87
Rp88
I7
sg1
(Vhttp://swrc.ontoware.org/ontology#name
p89
tp90
Rp91
I4
sg1
(Vhttp://swrc.ontoware.org/ontology#head
p92
tp93
Rp94
I43
sg1
(Vhttp://swrc.ontoware.org/ontology#series
p95
tp96
Rp97
I18
sg1
(Vhttp://www.w3.org/2000/01/rdf-schema#subClassOf
p98
tp99
Rp100
I24
sg1
(Vhttp://swrc.ontoware.org/ontology#finances
p101
tp102
Rp103
I35
sg1
(Vhttp://www.aifb.uni-karlsruhe.de/WBS/dvr/owltools/merge/type
p104
tp105
Rp106
I31
sg1
(Vhttp://swrc.ontoware.org/ontology#booktitle
p107
tp108
Rp109
I10
sg1
(Vhttp://swrc.ontoware.org/ontology#isAbout
p110
tp111
Rp112
I3
sg1
(Vhttp://swrc.ontoware.org/ontology#hasProject
p113
tp114
Rp115
I9
sg1
(Vhttp://swrc.ontoware.org/ontology#isbn
p116
tp117
Rp118
I39
sg1
(Vhttp://swrc.ontoware.org/ontology#carriesOut
p119
tp120
Rp121
I34
sg1
(Vhttp://swrc.ontoware.org/ontology#member
p122
tp123
Rp124
I16
sg1
(Vhttp://swrc.ontoware.org/ontology#title
p125
tp126
Rp127
I6
sg1
(Vhttp://swrc.ontoware.org/ontology#fax
p128
tp129
Rp130
I21
sg1
(Vhttp://swrc.ontoware.org/ontology#journal
p131
tp132
Rp133
I26
sg1
(Vhttp://swrc.ontoware.org/ontology#homepage
p134
tp135
Rp136
I19
s.