(dp0
crdflib.term
URIRef
p1
(Vhttp://dl-learner.org/carcinogenesis#cytogen_sce
p2
tp3
Rp4
I9
sg1
(Vhttp://dl-learner.org/carcinogenesis#hasAtom
p5
tp6
Rp7
I3
sg1
(Vhttp://dl-learner.org/carcinogenesis#salmonella_reduc
p8
tp9
Rp10
I22
sg1
(Vhttp://dl-learner.org/carcinogenesis#salmonella_n
p11
tp12
Rp13
I12
sg1
(Vhttp://dl-learner.org/carcinogenesis#micronuc_f
p14
tp15
Rp16
I19
sg1
(Vhttp://dl-learner.org/carcinogenesis#micronuc_m
p17
tp18
Rp19
I20
sg1
(Vhttp://dl-learner.org/carcinogenesis#charge
p20
tp21
Rp22
I4
sg1
(Vhttp://www.w3.org/2000/01/rdf-schema#subClassOf
p23
tp24
Rp25
I11
sg1
(Vhttp://www.w3.org/2000/01/rdf-schema#range
p26
tp27
Rp28
I17
sg1
(Vhttp://dl-learner.org/carcinogenesis#cytogen_ca
p29
tp30
Rp31
I8
sg1
(Vhttp://www.w3.org/1999/02/22-rdf-syntax-ns#type
p32
tp33
Rp34
I0
sg1
(Vhttp://dl-learner.org/carcinogenesis#chromaberr
p35
tp36
Rp37
I13
sg1
(Vhttp://dl-learner.org/carcinogenesis#hasBond
p38
tp39
Rp40
I2
sg1
(Vhttp://www.w3.org/2002/07/owl#disjointWith
p41
tp42
Rp43
I21
sg1
(Vhttp://www.w3.org/2000/01/rdf-schema#domain
p44
tp45
Rp46
I18
sg1
(Vhttp://dl-learner.org/carcinogenesis#salmonella
p47
tp48
Rp49
I7
sg1
(Vhttp://dl-learner.org/carcinogenesis#amesTestPositive
p50
tp51
Rp52
I6
sg1
(Vhttp://dl-learner.org/carcinogenesis#chromex
p53
tp54
Rp55
I14
sg1
(Vhttp://dl-learner.org/carcinogenesis#drosophila_slrl
p56
tp57
Rp58
I15
sg1
(Vhttp://dl-learner.org/carcinogenesis#mouse_lymph
p59
tp60
Rp61
I10
sg1
(Vhttp://dl-learner.org/carcinogenesis#inBond
p62
tp63
Rp64
I1
sg1
(Vhttp://dl-learner.org/carcinogenesis#hasStructure
p65
tp66
Rp67
I5
sg1
(Vhttp://dl-learner.org/carcinogenesis#drosophila_rt
p68
tp69
Rp70
I16
s.